target datalayout = "e-m:e-p270:32:32-p271:32:32-p272:64:64-i64:64-i128:128-f80:128-n8:16:32:64-S128"
target triple = "x86_64-pc-linux-gnu"

%struct.Aig_Man_t_ = type { ptr, ptr, ptr, ptr, ptr, ptr, ptr, %struct.Aig_Obj_t_, i32, i32, i32, i32, i32, i32, [7 x i32], i32, ptr, i32, ptr, i32, ptr, i32, i32, i32, ptr, i32, i32, i32, i32, i32, ptr, ptr, i32, ptr, ptr, i32, ptr, ptr, i32, i32, i32, ptr, ptr, ptr, ptr, ptr, ptr, ptr, ptr, ptr, ptr, ptr, ptr, ptr, ptr, i32, ptr, ptr, ptr, ptr, i32, i64, i64, i64, ptr, ptr }
%struct.Aig_Obj_t_ = type { %union.anon, ptr, ptr, i64, i32, i32, %union.anon.0 }
%union.anon = type { ptr }
%union.anon.0 = type { ptr }
%struct.Vec_Ptr_t_ = type { i32, i32, ptr }

; Function Attrs: inlinehint nounwind uwtable
define internal i32 @Aig_IsComplement(ptr noundef %0) #3 {
  %2 = alloca ptr, align 8
  store ptr %0, ptr %2, align 8, !tbaa !32
  %3 = load ptr, ptr %2, align 8, !tbaa !32
  %4 = ptrtoint ptr %3 to i64
  %5 = and i64 %4, 1
  %6 = trunc i64 %5 to i32
  ret i32 %6
}

; Function Attrs: inlinehint nounwind uwtable
define internal ptr @Aig_Regular(ptr noundef %0) #3 {
  %2 = alloca ptr, align 8
  store ptr %0, ptr %2, align 8, !tbaa !32
  %3 = load ptr, ptr %2, align 8, !tbaa !32
  %4 = ptrtoint ptr %3 to i64
  %5 = and i64 %4, -2
  %6 = inttoptr i64 %5 to ptr
  ret ptr %6
}

; Function Attrs: inlinehint nounwind uwtable
define internal i32 @Aig_ObjFaninC0(ptr noundef %0) #3 {
  %2 = alloca ptr, align 8
  store ptr %0, ptr %2, align 8, !tbaa !32
  %3 = load ptr, ptr %2, align 8, !tbaa !32
  %4 = getelementptr inbounds nuw %struct.Aig_Obj_t_, ptr %3, i32 0, i32 1
  %5 = load ptr, ptr %4, align 8, !tbaa !57
  %6 = call i32 @Aig_IsComplement(ptr noundef %5)
  ret i32 %6
}

; Function Attrs: inlinehint nounwind uwtable
define internal ptr @Aig_ObjFanin0(ptr noundef %0) #3 {
  %2 = alloca ptr, align 8
  store ptr %0, ptr %2, align 8, !tbaa !32
  %3 = load ptr, ptr %2, align 8, !tbaa !32
  %4 = getelementptr inbounds nuw %struct.Aig_Obj_t_, ptr %3, i32 0, i32 1
  %5 = load ptr, ptr %4, align 8, !tbaa !57
  %6 = call ptr @Aig_Regular(ptr noundef %5)
  ret ptr %6
}

; Function Attrs: inlinehint nounwind uwtable
define internal i32 @Aig_ManRegNum(ptr noundef %0) #3 {
  %2 = alloca ptr, align 8
  store ptr %0, ptr %2, align 8, !tbaa !3
  %3 = load ptr, ptr %2, align 8, !tbaa !3
  %4 = getelementptr inbounds nuw %struct.Aig_Man_t_, ptr %3, i32 0, i32 8
  %5 = load i32, ptr %4, align 8, !tbaa !53
  ret i32 %5
}

; Function Attrs: inlinehint nounwind uwtable
define internal i32 @Aig_ManCoNum(ptr noundef %0) #3 {
  %2 = alloca ptr, align 8
  store ptr %0, ptr %2, align 8, !tbaa !3
  %3 = load ptr, ptr %2, align 8, !tbaa !3
  %4 = getelementptr inbounds nuw %struct.Aig_Man_t_, ptr %3, i32 0, i32 14
  %5 = getelementptr inbounds [7 x i32], ptr %4, i64 0, i64 3
  %6 = load i32, ptr %5, align 4, !tbaa !30
  ret i32 %6
}

; Function Attrs: inlinehint nounwind uwtable
define internal ptr @Vec_PtrEntry(ptr noundef %0, i32 noundef %1) #3 {
  %3 = alloca ptr, align 8
  %4 = alloca i32, align 4
  store ptr %0, ptr %3, align 8, !tbaa !8
  store i32 %1, ptr %4, align 4, !tbaa !30
  %5 = load ptr, ptr %3, align 8, !tbaa !8
  %6 = getelementptr inbounds nuw %struct.Vec_Ptr_t_, ptr %5, i32 0, i32 2
  %7 = load ptr, ptr %6, align 8, !tbaa !51
  %8 = load i32, ptr %4, align 4, !tbaa !30
  %9 = sext i32 %8 to i64
  %10 = getelementptr inbounds ptr, ptr %7, i64 %9
  %11 = load ptr, ptr %10, align 8, !tbaa !52
  ret ptr %11
}

; Function Attrs: inlinehint nounwind uwtable
define internal i32 @Vec_PtrSize(ptr noundef %0) #3 {
  %2 = alloca ptr, align 8
  store ptr %0, ptr %2, align 8, !tbaa !8
  %3 = load ptr, ptr %2, align 8, !tbaa !8
  %4 = getelementptr inbounds nuw %struct.Vec_Ptr_t_, ptr %3, i32 0, i32 1
  %5 = load i32, ptr %4, align 4, !tbaa !49
  ret i32 %5
}

; Function Attrs: nounwind uwtable
define i32 @Aig_ManReduceLachesCount(ptr noundef %0) #0 {
  %2 = alloca ptr, align 8
  %3 = alloca ptr, align 8
  %4 = alloca ptr, align 8
  %5 = alloca i32, align 4
  %6 = alloca i32, align 4
  %7 = alloca i32, align 4
  store ptr %0, ptr %2, align 8, !tbaa !3
  call void @llvm.lifetime.start.p0(i64 8, ptr %3) #10
  call void @llvm.lifetime.start.p0(i64 8, ptr %4) #10
  call void @llvm.lifetime.start.p0(i64 4, ptr %5) #10
  call void @llvm.lifetime.start.p0(i64 4, ptr %6) #10
  store i32 0, ptr %6, align 4, !tbaa !30
  call void @llvm.lifetime.start.p0(i64 4, ptr %7) #10
  store i32 0, ptr %7, align 4, !tbaa !30
  store i32 0, ptr %5, align 4, !tbaa !30
  br label %8

8:                                                ; preds = %29, %1
  %9 = load i32, ptr %5, align 4, !tbaa !30
  %10 = load ptr, ptr %2, align 8, !tbaa !3
  %11 = getelementptr inbounds nuw %struct.Aig_Man_t_, ptr %10, i32 0, i32 4
  %12 = load ptr, ptr %11, align 8, !tbaa !38
  %13 = call i32 @Vec_PtrSize(ptr noundef %12)
  %14 = icmp slt i32 %9, %13
  br i1 %14, label %15, label %21

15:                                               ; preds = %8
  %16 = load ptr, ptr %2, align 8, !tbaa !3
  %17 = getelementptr inbounds nuw %struct.Aig_Man_t_, ptr %16, i32 0, i32 4
  %18 = load ptr, ptr %17, align 8, !tbaa !38
  %19 = load i32, ptr %5, align 4, !tbaa !30
  %20 = call ptr @Vec_PtrEntry(ptr noundef %18, i32 noundef %19)
  store ptr %20, ptr %3, align 8, !tbaa !32
  br label %21

21:                                               ; preds = %15, %8
  %22 = phi i1 [ false, %8 ], [ true, %15 ]
  br i1 %22, label %23, label %32

23:                                               ; preds = %21
  %24 = load ptr, ptr %3, align 8, !tbaa !32
  %25 = icmp eq ptr %24, null
  br i1 %25, label %26, label %27

26:                                               ; preds = %23
  br label %28

27:                                               ; preds = %23
  br label %28

28:                                               ; preds = %27, %26
  br label %29

29:                                               ; preds = %28
  %30 = load i32, ptr %5, align 4, !tbaa !30
  %31 = add nsw i32 %30, 1
  store i32 %31, ptr %5, align 4, !tbaa !30
  br label %8, !llvm.loop !77

32:                                               ; preds = %21
  %33 = load ptr, ptr %2, align 8, !tbaa !3
  %34 = call i32 @Aig_ManCoNum(ptr noundef %33)
  %35 = load ptr, ptr %2, align 8, !tbaa !3
  %36 = call i32 @Aig_ManRegNum(ptr noundef %35)
  %37 = sub nsw i32 %34, %36
  store i32 %37, ptr %5, align 4, !tbaa !30
  br label %38

38:                                               ; preds = %96, %32
  %39 = load i32, ptr %5, align 4, !tbaa !30
  %40 = load ptr, ptr %2, align 8, !tbaa !3
  %41 = getelementptr inbounds nuw %struct.Aig_Man_t_, ptr %40, i32 0, i32 3
  %42 = load ptr, ptr %41, align 8, !tbaa !40
  %43 = call i32 @Vec_PtrSize(ptr noundef %42)
  %44 = icmp slt i32 %39, %43
  br i1 %44, label %45, label %51

45:                                               ; preds = %38
  %46 = load ptr, ptr %2, align 8, !tbaa !3
  %47 = getelementptr inbounds nuw %struct.Aig_Man_t_, ptr %46, i32 0, i32 3
  %48 = load ptr, ptr %47, align 8, !tbaa !40
  %49 = load i32, ptr %5, align 4, !tbaa !30
  %50 = call ptr @Vec_PtrEntry(ptr noundef %48, i32 noundef %49)
  store ptr %50, ptr %3, align 8, !tbaa !32
  br label %51

51:                                               ; preds = %45, %38
  %52 = phi i1 [ false, %38 ], [ true, %45 ]
  br i1 %52, label %53, label %99

53:                                               ; preds = %51
  %54 = load ptr, ptr %3, align 8, !tbaa !32
  %55 = call ptr @Aig_ObjFanin0(ptr noundef %54)
  store ptr %55, ptr %4, align 8, !tbaa !32
  %56 = load ptr, ptr %3, align 8, !tbaa !32
  %57 = call i32 @Aig_ObjFaninC0(ptr noundef %56)
  %58 = icmp ne i32 %57, 0
  br i1 %58, label %59, label %77

59:                                               ; preds = %53
  %60 = load ptr, ptr %4, align 8, !tbaa !32
  %61 = getelementptr inbounds nuw %struct.Aig_Obj_t_, ptr %60, i32 0, i32 3
  %62 = load i64, ptr %61, align 8
  %63 = lshr i64 %62, 5
  %64 = and i64 %63, 1
  %65 = trunc i64 %64 to i32
  %66 = icmp ne i32 %65, 0
  br i1 %66, label %67, label %70

67:                                               ; preds = %59
  %68 = load i32, ptr %6, align 4, !tbaa !30
  %69 = add nsw i32 %68, 1
  store i32 %69, ptr %6, align 4, !tbaa !30
  br label %76

70:                                               ; preds = %59
  %71 = load ptr, ptr %4, align 8, !tbaa !32
  %72 = getelementptr inbounds nuw %struct.Aig_Obj_t_, ptr %71, i32 0, i32 3
  %73 = load i64, ptr %72, align 8
  %74 = and i64 %73, -33
  %75 = or i64 %74, 32
  store i64 %75, ptr %72, align 8
  br label %76

76:                                               ; preds = %70, %67
  br label %95

77:                                               ; preds = %53
  %78 = load ptr, ptr %4, align 8, !tbaa !32
  %79 = getelementptr inbounds nuw %struct.Aig_Obj_t_, ptr %78, i32 0, i32 3
  %80 = load i64, ptr %79, align 8
  %81 = lshr i64 %80, 4
  %82 = and i64 %81, 1
  %83 = trunc i64 %82 to i32
  %84 = icmp ne i32 %83, 0
  br i1 %84, label %85, label %88

85:                                               ; preds = %77
  %86 = load i32, ptr %6, align 4, !tbaa !30
  %87 = add nsw i32 %86, 1
  store i32 %87, ptr %6, align 4, !tbaa !30
  br label %94

88:                                               ; preds = %77
  %89 = load ptr, ptr %4, align 8, !tbaa !32
  %90 = getelementptr inbounds nuw %struct.Aig_Obj_t_, ptr %89, i32 0, i32 3
  %91 = load i64, ptr %90, align 8
  %92 = and i64 %91, -17
  %93 = or i64 %92, 16
  store i64 %93, ptr %90, align 8
  br label %94

94:                                               ; preds = %88, %85
  br label %95

95:                                               ; preds = %94, %76
  br label %96

96:                                               ; preds = %95
  %97 = load i32, ptr %5, align 4, !tbaa !30
  %98 = add nsw i32 %97, 1
  store i32 %98, ptr %5, align 4, !tbaa !30
  br label %38, !llvm.loop !78

99:                                               ; preds = %51
  %100 = load ptr, ptr %2, align 8, !tbaa !3
  %101 = call i32 @Aig_ManCoNum(ptr noundef %100)
  %102 = load ptr, ptr %2, align 8, !tbaa !3
  %103 = call i32 @Aig_ManRegNum(ptr noundef %102)
  %104 = sub nsw i32 %101, %103
  store i32 %104, ptr %5, align 4, !tbaa !30
  br label %105

105:                                              ; preds = %153, %99
  %106 = load i32, ptr %5, align 4, !tbaa !30
  %107 = load ptr, ptr %2, align 8, !tbaa !3
  %108 = getelementptr inbounds nuw %struct.Aig_Man_t_, ptr %107, i32 0, i32 3
  %109 = load ptr, ptr %108, align 8, !tbaa !40
  %110 = call i32 @Vec_PtrSize(ptr noundef %109)
  %111 = icmp slt i32 %106, %110
  br i1 %111, label %112, label %118

112:                                              ; preds = %105
  %113 = load ptr, ptr %2, align 8, !tbaa !3
  %114 = getelementptr inbounds nuw %struct.Aig_Man_t_, ptr %113, i32 0, i32 3
  %115 = load ptr, ptr %114, align 8, !tbaa !40
  %116 = load i32, ptr %5, align 4, !tbaa !30
  %117 = call ptr @Vec_PtrEntry(ptr noundef %115, i32 noundef %116)
  store ptr %117, ptr %3, align 8, !tbaa !32
  br label %118

118:                                              ; preds = %112, %105
  %119 = phi i1 [ false, %105 ], [ true, %112 ]
  br i1 %119, label %120, label %156

120:                                              ; preds = %118
  %121 = load ptr, ptr %3, align 8, !tbaa !32
  %122 = call ptr @Aig_ObjFanin0(ptr noundef %121)
  store ptr %122, ptr %4, align 8, !tbaa !32
  %123 = load ptr, ptr %4, align 8, !tbaa !32
  %124 = getelementptr inbounds nuw %struct.Aig_Obj_t_, ptr %123, i32 0, i32 3
  %125 = load i64, ptr %124, align 8
  %126 = lshr i64 %125, 4
  %127 = and i64 %126, 1
  %128 = trunc i64 %127 to i32
  %129 = icmp ne i32 %128, 0
  br i1 %129, label %130, label %138

130:                                              ; preds = %120
  %131 = load ptr, ptr %4, align 8, !tbaa !32
  %132 = getelementptr inbounds nuw %struct.Aig_Obj_t_, ptr %131, i32 0, i32 3
  %133 = load i64, ptr %132, align 8
  %134 = lshr i64 %133, 5
  %135 = and i64 %134, 1
  %136 = trunc i64 %135 to i32
  %137 = icmp ne i32 %136, 0
  br label %138

138:                                              ; preds = %130, %120
  %139 = phi i1 [ false, %120 ], [ %137, %130 ]
  %140 = zext i1 %139 to i32
  %141 = load i32, ptr %7, align 4, !tbaa !30
  %142 = add nsw i32 %141, %140
  store i32 %142, ptr %7, align 4, !tbaa !30
  %143 = load ptr, ptr %4, align 8, !tbaa !32
  %144 = getelementptr inbounds nuw %struct.Aig_Obj_t_, ptr %143, i32 0, i32 3
  %145 = load i64, ptr %144, align 8
  %146 = and i64 %145, -33
  %147 = or i64 %146, 0
  store i64 %147, ptr %144, align 8
  %148 = load ptr, ptr %4, align 8, !tbaa !32
  %149 = getelementptr inbounds nuw %struct.Aig_Obj_t_, ptr %148, i32 0, i32 3
  %150 = load i64, ptr %149, align 8
  %151 = and i64 %150, -17
  %152 = or i64 %151, 0
  store i64 %152, ptr %149, align 8
  br label %153

153:                                              ; preds = %138
  %154 = load i32, ptr %5, align 4, !tbaa !30
  %155 = add nsw i32 %154, 1
  store i32 %155, ptr %5, align 4, !tbaa !30
  br label %105, !llvm.loop !79

156:                                              ; preds = %118
  %157 = load i32, ptr %6, align 4, !tbaa !30
  call void @llvm.lifetime.end.p0(i64 4, ptr %7) #10
  call void @llvm.lifetime.end.p0(i64 4, ptr %6) #10
  call void @llvm.lifetime.end.p0(i64 4, ptr %5) #10
  call void @llvm.lifetime.end.p0(i64 8, ptr %4) #10
  call void @llvm.lifetime.end.p0(i64 8, ptr %3) #10
  ret i32 %157
}