; Function Attrs: nofree norecurse nosync nounwind memory(readwrite, inaccessiblemem: none) uwtable
define i32 @Aig_ManReduceLachesCount(ptr noundef readonly captures(none) %0) local_unnamed_addr #4 {
.critedge:
  %1 = getelementptr i8, ptr %0, i64 140
  %.val55 = load i32, ptr %1, align 4, !tbaa !41
  %2 = getelementptr i8, ptr %0, i64 104
  %.val50 = load i32, ptr %2, align 8, !tbaa !42
  %3 = sub nsw i32 %.val55, %.val50
  %4 = getelementptr inbounds nuw i8, ptr %0, i64 24
  %5 = load ptr, ptr %4, align 8, !tbaa !46
  %6 = getelementptr i8, ptr %5, i64 4
  %.val4456 = load i32, ptr %6, align 4, !tbaa !21
  %7 = icmp slt i32 %3, %.val4456
  br i1 %7, label %.lr.ph.preheader, label %.critedge2

.lr.ph.preheader:                                 ; preds = %.critedge
  %8 = sext i32 %3 to i64
  br label %.lr.ph

.lr.ph:                                           ; preds = %.lr.ph.preheader, %32
  %indvars.iv = phi i64 [ %8, %.lr.ph.preheader ], [ %indvars.iv.next, %32 ]
  %9 = phi ptr [ %5, %.lr.ph.preheader ], [ %33, %32 ]
  %.03858 = phi i32 [ 0, %.lr.ph.preheader ], [ %.1, %32 ]
  %10 = getelementptr i8, ptr %9, i64 8
  %.val47 = load ptr, ptr %10, align 8, !tbaa !37
  %11 = getelementptr inbounds ptr, ptr %.val47, i64 %indvars.iv
  %12 = load ptr, ptr %11, align 8, !tbaa !38
  %13 = getelementptr i8, ptr %12, i64 8
  %.val52 = load ptr, ptr %13, align 8, !tbaa !47
  %14 = ptrtoint ptr %.val52 to i64
  %15 = and i64 %14, -2
  %16 = inttoptr i64 %15 to ptr
  %17 = and i64 %14, 1
  %.not41 = icmp eq i64 %17, 0
  %18 = getelementptr inbounds nuw i8, ptr %16, i64 24
  %19 = load i64, ptr %18, align 8
  br i1 %.not41, label %26, label %20

20:                                               ; preds = %.lr.ph
  %21 = and i64 %19, 32
  %.not43 = icmp eq i64 %21, 0
  br i1 %.not43, label %24, label %22

22:                                               ; preds = %20
  %23 = add nsw i32 %.03858, 1
  br label %32

24:                                               ; preds = %20
  %25 = or disjoint i64 %19, 32
  store i64 %25, ptr %18, align 8
  br label %32

26:                                               ; preds = %.lr.ph
  %27 = and i64 %19, 16
  %.not42 = icmp eq i64 %27, 0
  br i1 %.not42, label %30, label %28

28:                                               ; preds = %26
  %29 = add nsw i32 %.03858, 1
  br label %32

30:                                               ; preds = %26
  %31 = or disjoint i64 %19, 16
  store i64 %31, ptr %18, align 8
  br label %32

32:                                               ; preds = %24, %22, %30, %28
  %.1 = phi i32 [ %23, %22 ], [ %.03858, %24 ], [ %29, %28 ], [ %.03858, %30 ]
  %indvars.iv.next = add nsw i64 %indvars.iv, 1
  %33 = load ptr, ptr %4, align 8, !tbaa !46
  %34 = getelementptr i8, ptr %33, i64 4
  %.val44 = load i32, ptr %34, align 4, !tbaa !21
  %35 = sext i32 %.val44 to i64
  %36 = icmp slt i64 %indvars.iv.next, %35
  br i1 %36, label %.lr.ph, label %.critedge2.loopexit, !llvm.loop !73

.critedge2.loopexit:                              ; preds = %32
  %.val54.pre = load i32, ptr %1, align 4, !tbaa !41
  %.val49.pre = load i32, ptr %2, align 8, !tbaa !42
  %.pre = sub nsw i32 %.val54.pre, %.val49.pre
  br label %.critedge2

.critedge2:                                       ; preds = %.critedge2.loopexit, %.critedge
  %.pre-phi = phi i32 [ %.pre, %.critedge2.loopexit ], [ %3, %.critedge ]
  %.val59 = phi i32 [ %.val44, %.critedge2.loopexit ], [ %.val4456, %.critedge ]
  %37 = phi ptr [ %33, %.critedge2.loopexit ], [ %5, %.critedge ]
  %.038.lcssa = phi i32 [ %.1, %.critedge2.loopexit ], [ 0, %.critedge ]
  %38 = icmp slt i32 %.pre-phi, %.val59
  br i1 %38, label %.lr.ph61.preheader, label %.critedge4

.lr.ph61.preheader:                               ; preds = %.critedge2
  %39 = sext i32 %.pre-phi to i64
  br label %.lr.ph61

.lr.ph61:                                         ; preds = %.lr.ph61.preheader, %.lr.ph61
  %indvars.iv63 = phi i64 [ %39, %.lr.ph61.preheader ], [ %indvars.iv.next64, %.lr.ph61 ]
  %40 = phi ptr [ %37, %.lr.ph61.preheader ], [ %51, %.lr.ph61 ]
  %41 = getelementptr i8, ptr %40, i64 8
  %.val46 = load ptr, ptr %41, align 8, !tbaa !37
  %42 = getelementptr inbounds ptr, ptr %.val46, i64 %indvars.iv63
  %43 = load ptr, ptr %42, align 8, !tbaa !38
  %44 = getelementptr i8, ptr %43, i64 8
  %.val51 = load ptr, ptr %44, align 8, !tbaa !47
  %45 = ptrtoint ptr %.val51 to i64
  %46 = and i64 %45, -2
  %47 = inttoptr i64 %46 to ptr
  %48 = getelementptr inbounds nuw i8, ptr %47, i64 24
  %49 = load i64, ptr %48, align 8
  %50 = and i64 %49, -49
  store i64 %50, ptr %48, align 8
  %indvars.iv.next64 = add nsw i64 %indvars.iv63, 1
  %51 = load ptr, ptr %4, align 8, !tbaa !46
  %52 = getelementptr i8, ptr %51, i64 4
  %.val = load i32, ptr %52, align 4, !tbaa !21
  %53 = sext i32 %.val to i64
  %54 = icmp slt i64 %indvars.iv.next64, %53
  br i1 %54, label %.lr.ph61, label %.critedge4, !llvm.loop !74

.critedge4:                                       ; preds = %.lr.ph61, %.critedge2
  ret i32 %.038.lcssa
}